((lp0
(dp1
S'javac_switches'
p2
(dp3
S'XDuseUnsharedTable=true'
p4
I01
sS'target'
p5
S'1.8'
p6
sS'g'
p7
I01
sS'sourcepath'
p8
S''
p9
sS'classpath'
p10
g9
sS'source'
p11
S'1.8'
p12
sS'proc:none'
p13
I01
sS'd'
p14
S'/mnt/c/Users/siddh/Desktop/PLSE/testWPI/build/classes/java/main'
p15
ssS'java_files'
p16
(lp17
S'/mnt/c/Users/siddh/Desktop/PLSE/testWPI/src/main/java/BasicUrlTest.java'
p18
asa(lp19
(dp20
S'javac_invocations'
p21
I1
sS'class_files'
p22
I2
sS'built_jars'
p23
I0
sS'executable_jars'
p24
I0
sS'source_files'
p25
I1
stp26
.